target datalayout = "e-m:e-p270:32:32-p271:32:32-p272:64:64-i64:64-i128:128-f80:128-n8:16:32:64-S128"
target triple = "x86_64-pc-linux-gnu"

%struct._lv_rb_t = type { ptr, ptr, i64 }
%struct._lv_rb_node_t = type { ptr, ptr, ptr, i32, ptr }

; Function Attrs: nounwind uwtable
define ptr @lv_rb_minimum_from(ptr noundef %0) #0 {
  %2 = alloca ptr, align 8
  store ptr %0, ptr %2, align 8, !tbaa !16
  br label %3

3:                                                ; preds = %8, %1
  %4 = load ptr, ptr %2, align 8, !tbaa !16
  %5 = getelementptr inbounds nuw %struct._lv_rb_node_t, ptr %4, i32 0, i32 1
  %6 = load ptr, ptr %5, align 8, !tbaa !22
  %7 = icmp ne ptr %6, null
  br i1 %7, label %8, label %12

8:                                                ; preds = %3
  %9 = load ptr, ptr %2, align 8, !tbaa !16
  %10 = getelementptr inbounds nuw %struct._lv_rb_node_t, ptr %9, i32 0, i32 1
  %11 = load ptr, ptr %10, align 8, !tbaa !22
  store ptr %11, ptr %2, align 8, !tbaa !16
  br label %3, !llvm.loop !30

12:                                               ; preds = %3
  %13 = load ptr, ptr %2, align 8, !tbaa !16
  ret ptr %13
}

; Function Attrs: nounwind uwtable
define ptr @lv_rb_remove_node(ptr noundef %0, ptr noundef %1) #0 {
  %3 = alloca ptr, align 8
  %4 = alloca ptr, align 8
  %5 = alloca ptr, align 8
  %6 = alloca ptr, align 8
  %7 = alloca ptr, align 8
  %8 = alloca i32, align 4
  %9 = alloca ptr, align 8
  %10 = alloca ptr, align 8
  %11 = alloca i32, align 4
  %12 = alloca ptr, align 8
  store ptr %0, ptr %4, align 8, !tbaa !3
  store ptr %1, ptr %5, align 8, !tbaa !16
  call void @llvm.lifetime.start.p0(i64 8, ptr %6) #4
  store ptr null, ptr %6, align 8, !tbaa !16
  call void @llvm.lifetime.start.p0(i64 8, ptr %7) #4
  store ptr null, ptr %7, align 8, !tbaa !16
  call void @llvm.lifetime.start.p0(i64 4, ptr %8) #4
  store i32 1, ptr %8, align 4, !tbaa !29
  %13 = load ptr, ptr %5, align 8, !tbaa !16
  %14 = getelementptr inbounds nuw %struct._lv_rb_node_t, ptr %13, i32 0, i32 1
  %15 = load ptr, ptr %14, align 8, !tbaa !22
  %16 = icmp ne ptr %15, null
  br i1 %16, label %17, label %126

17:                                               ; preds = %2
  %18 = load ptr, ptr %5, align 8, !tbaa !16
  %19 = getelementptr inbounds nuw %struct._lv_rb_node_t, ptr %18, i32 0, i32 2
  %20 = load ptr, ptr %19, align 8, !tbaa !23
  %21 = icmp ne ptr %20, null
  br i1 %21, label %22, label %126

22:                                               ; preds = %17
  call void @llvm.lifetime.start.p0(i64 8, ptr %9) #4
  %23 = load ptr, ptr %5, align 8, !tbaa !16
  store ptr %23, ptr %9, align 8, !tbaa !16
  %24 = load ptr, ptr %9, align 8, !tbaa !16
  %25 = getelementptr inbounds nuw %struct._lv_rb_node_t, ptr %24, i32 0, i32 2
  %26 = load ptr, ptr %25, align 8, !tbaa !23
  %27 = call ptr @lv_rb_minimum_from(ptr noundef %26)
  store ptr %27, ptr %9, align 8, !tbaa !16
  %28 = load ptr, ptr %5, align 8, !tbaa !16
  %29 = getelementptr inbounds nuw %struct._lv_rb_node_t, ptr %28, i32 0, i32 0
  %30 = load ptr, ptr %29, align 8, !tbaa !17
  %31 = icmp ne ptr %30, null
  br i1 %31, label %32, label %53

32:                                               ; preds = %22
  %33 = load ptr, ptr %5, align 8, !tbaa !16
  %34 = getelementptr inbounds nuw %struct._lv_rb_node_t, ptr %33, i32 0, i32 0
  %35 = load ptr, ptr %34, align 8, !tbaa !17
  %36 = getelementptr inbounds nuw %struct._lv_rb_node_t, ptr %35, i32 0, i32 1
  %37 = load ptr, ptr %36, align 8, !tbaa !22
  %38 = load ptr, ptr %5, align 8, !tbaa !16
  %39 = icmp eq ptr %37, %38
  br i1 %39, label %40, label %46

40:                                               ; preds = %32
  %41 = load ptr, ptr %9, align 8, !tbaa !16
  %42 = load ptr, ptr %5, align 8, !tbaa !16
  %43 = getelementptr inbounds nuw %struct._lv_rb_node_t, ptr %42, i32 0, i32 0
  %44 = load ptr, ptr %43, align 8, !tbaa !17
  %45 = getelementptr inbounds nuw %struct._lv_rb_node_t, ptr %44, i32 0, i32 1
  store ptr %41, ptr %45, align 8, !tbaa !22
  br label %52

46:                                               ; preds = %32
  %47 = load ptr, ptr %9, align 8, !tbaa !16
  %48 = load ptr, ptr %5, align 8, !tbaa !16
  %49 = getelementptr inbounds nuw %struct._lv_rb_node_t, ptr %48, i32 0, i32 0
  %50 = load ptr, ptr %49, align 8, !tbaa !17
  %51 = getelementptr inbounds nuw %struct._lv_rb_node_t, ptr %50, i32 0, i32 2
  store ptr %47, ptr %51, align 8, !tbaa !23
  br label %52

52:                                               ; preds = %46, %40
  br label %57

53:                                               ; preds = %22
  %54 = load ptr, ptr %9, align 8, !tbaa !16
  %55 = load ptr, ptr %4, align 8, !tbaa !3
  %56 = getelementptr inbounds nuw %struct._lv_rb_t, ptr %55, i32 0, i32 0
  store ptr %54, ptr %56, align 8, !tbaa !11
  br label %57

57:                                               ; preds = %53, %52
  %58 = load ptr, ptr %9, align 8, !tbaa !16
  %59 = getelementptr inbounds nuw %struct._lv_rb_node_t, ptr %58, i32 0, i32 2
  %60 = load ptr, ptr %59, align 8, !tbaa !23
  store ptr %60, ptr %6, align 8, !tbaa !16
  %61 = load ptr, ptr %9, align 8, !tbaa !16
  %62 = getelementptr inbounds nuw %struct._lv_rb_node_t, ptr %61, i32 0, i32 0
  %63 = load ptr, ptr %62, align 8, !tbaa !17
  store ptr %63, ptr %7, align 8, !tbaa !16
  %64 = load ptr, ptr %9, align 8, !tbaa !16
  %65 = getelementptr inbounds nuw %struct._lv_rb_node_t, ptr %64, i32 0, i32 3
  %66 = load i32, ptr %65, align 8, !tbaa !20
  store i32 %66, ptr %8, align 4, !tbaa !29
  %67 = load ptr, ptr %7, align 8, !tbaa !16
  %68 = load ptr, ptr %5, align 8, !tbaa !16
  %69 = icmp eq ptr %67, %68
  br i1 %69, label %70, label %72

70:                                               ; preds = %57
  %71 = load ptr, ptr %9, align 8, !tbaa !16
  store ptr %71, ptr %7, align 8, !tbaa !16
  br label %93

72:                                               ; preds = %57
  %73 = load ptr, ptr %6, align 8, !tbaa !16
  %74 = icmp ne ptr %73, null
  br i1 %74, label %75, label %79

75:                                               ; preds = %72
  %76 = load ptr, ptr %7, align 8, !tbaa !16
  %77 = load ptr, ptr %6, align 8, !tbaa !16
  %78 = getelementptr inbounds nuw %struct._lv_rb_node_t, ptr %77, i32 0, i32 0
  store ptr %76, ptr %78, align 8, !tbaa !17
  br label %79

79:                                               ; preds = %75, %72
  %80 = load ptr, ptr %6, align 8, !tbaa !16
  %81 = load ptr, ptr %7, align 8, !tbaa !16
  %82 = getelementptr inbounds nuw %struct._lv_rb_node_t, ptr %81, i32 0, i32 1
  store ptr %80, ptr %82, align 8, !tbaa !22
  %83 = load ptr, ptr %5, align 8, !tbaa !16
  %84 = getelementptr inbounds nuw %struct._lv_rb_node_t, ptr %83, i32 0, i32 2
  %85 = load ptr, ptr %84, align 8, !tbaa !23
  %86 = load ptr, ptr %9, align 8, !tbaa !16
  %87 = getelementptr inbounds nuw %struct._lv_rb_node_t, ptr %86, i32 0, i32 2
  store ptr %85, ptr %87, align 8, !tbaa !23
  %88 = load ptr, ptr %9, align 8, !tbaa !16
  %89 = load ptr, ptr %5, align 8, !tbaa !16
  %90 = getelementptr inbounds nuw %struct._lv_rb_node_t, ptr %89, i32 0, i32 2
  %91 = load ptr, ptr %90, align 8, !tbaa !23
  %92 = getelementptr inbounds nuw %struct._lv_rb_node_t, ptr %91, i32 0, i32 0
  store ptr %88, ptr %92, align 8, !tbaa !17
  br label %93

93:                                               ; preds = %79, %70
  %94 = load ptr, ptr %5, align 8, !tbaa !16
  %95 = getelementptr inbounds nuw %struct._lv_rb_node_t, ptr %94, i32 0, i32 0
  %96 = load ptr, ptr %95, align 8, !tbaa !17
  %97 = load ptr, ptr %9, align 8, !tbaa !16
  %98 = getelementptr inbounds nuw %struct._lv_rb_node_t, ptr %97, i32 0, i32 0
  store ptr %96, ptr %98, align 8, !tbaa !17
  %99 = load ptr, ptr %5, align 8, !tbaa !16
  %100 = getelementptr inbounds nuw %struct._lv_rb_node_t, ptr %99, i32 0, i32 3
  %101 = load i32, ptr %100, align 8, !tbaa !20
  %102 = load ptr, ptr %9, align 8, !tbaa !16
  %103 = getelementptr inbounds nuw %struct._lv_rb_node_t, ptr %102, i32 0, i32 3
  store i32 %101, ptr %103, align 8, !tbaa !20
  %104 = load ptr, ptr %5, align 8, !tbaa !16
  %105 = getelementptr inbounds nuw %struct._lv_rb_node_t, ptr %104, i32 0, i32 1
  %106 = load ptr, ptr %105, align 8, !tbaa !22
  %107 = load ptr, ptr %9, align 8, !tbaa !16
  %108 = getelementptr inbounds nuw %struct._lv_rb_node_t, ptr %107, i32 0, i32 1
  store ptr %106, ptr %108, align 8, !tbaa !22
  %109 = load ptr, ptr %9, align 8, !tbaa !16
  %110 = load ptr, ptr %5, align 8, !tbaa !16
  %111 = getelementptr inbounds nuw %struct._lv_rb_node_t, ptr %110, i32 0, i32 1
  %112 = load ptr, ptr %111, align 8, !tbaa !22
  %113 = getelementptr inbounds nuw %struct._lv_rb_node_t, ptr %112, i32 0, i32 0
  store ptr %109, ptr %113, align 8, !tbaa !17
  %114 = load i32, ptr %8, align 4, !tbaa !29
  %115 = icmp eq i32 %114, 1
  br i1 %115, label %116, label %120

116:                                              ; preds = %93
  %117 = load ptr, ptr %4, align 8, !tbaa !3
  %118 = load ptr, ptr %6, align 8, !tbaa !16
  %119 = load ptr, ptr %7, align 8, !tbaa !16
  call void @rb_delete_color(ptr noundef %117, ptr noundef %118, ptr noundef %119)
  br label %120

120:                                              ; preds = %116, %93
  call void @llvm.lifetime.start.p0(i64 8, ptr %10) #4
  %121 = load ptr, ptr %5, align 8, !tbaa !16
  %122 = getelementptr inbounds nuw %struct._lv_rb_node_t, ptr %121, i32 0, i32 4
  %123 = load ptr, ptr %122, align 8, !tbaa !21
  store ptr %123, ptr %10, align 8, !tbaa !8
  %124 = load ptr, ptr %5, align 8, !tbaa !16
  call void @lv_free(ptr noundef %124)
  %125 = load ptr, ptr %10, align 8, !tbaa !8
  store ptr %125, ptr %3, align 8
  store i32 1, ptr %11, align 4
  call void @llvm.lifetime.end.p0(i64 8, ptr %10) #4
  call void @llvm.lifetime.end.p0(i64 8, ptr %9) #4
  br label %188

126:                                              ; preds = %17, %2
  %127 = load ptr, ptr %5, align 8, !tbaa !16
  %128 = getelementptr inbounds nuw %struct._lv_rb_node_t, ptr %127, i32 0, i32 2
  %129 = load ptr, ptr %128, align 8, !tbaa !23
  %130 = icmp ne ptr %129, null
  br i1 %130, label %131, label %135

131:                                              ; preds = %126
  %132 = load ptr, ptr %5, align 8, !tbaa !16
  %133 = getelementptr inbounds nuw %struct._lv_rb_node_t, ptr %132, i32 0, i32 2
  %134 = load ptr, ptr %133, align 8, !tbaa !23
  br label %139

135:                                              ; preds = %126
  %136 = load ptr, ptr %5, align 8, !tbaa !16
  %137 = getelementptr inbounds nuw %struct._lv_rb_node_t, ptr %136, i32 0, i32 1
  %138 = load ptr, ptr %137, align 8, !tbaa !22
  br label %139

139:                                              ; preds = %135, %131
  %140 = phi ptr [ %134, %131 ], [ %138, %135 ]
  store ptr %140, ptr %6, align 8, !tbaa !16
  %141 = load ptr, ptr %5, align 8, !tbaa !16
  %142 = getelementptr inbounds nuw %struct._lv_rb_node_t, ptr %141, i32 0, i32 0
  %143 = load ptr, ptr %142, align 8, !tbaa !17
  store ptr %143, ptr %7, align 8, !tbaa !16
  %144 = load ptr, ptr %5, align 8, !tbaa !16
  %145 = getelementptr inbounds nuw %struct._lv_rb_node_t, ptr %144, i32 0, i32 3
  %146 = load i32, ptr %145, align 8, !tbaa !20
  store i32 %146, ptr %8, align 4, !tbaa !29
  %147 = load ptr, ptr %6, align 8, !tbaa !16
  %148 = icmp ne ptr %147, null
  br i1 %148, label %149, label %153

149:                                              ; preds = %139
  %150 = load ptr, ptr %7, align 8, !tbaa !16
  %151 = load ptr, ptr %6, align 8, !tbaa !16
  %152 = getelementptr inbounds nuw %struct._lv_rb_node_t, ptr %151, i32 0, i32 0
  store ptr %150, ptr %152, align 8, !tbaa !17
  br label %153

153:                                              ; preds = %149, %139
  %154 = load ptr, ptr %7, align 8, !tbaa !16
  %155 = icmp ne ptr %154, null
  br i1 %155, label %156, label %171

156:                                              ; preds = %153
  %157 = load ptr, ptr %7, align 8, !tbaa !16
  %158 = getelementptr inbounds nuw %struct._lv_rb_node_t, ptr %157, i32 0, i32 1
  %159 = load ptr, ptr %158, align 8, !tbaa !22
  %160 = load ptr, ptr %5, align 8, !tbaa !16
  %161 = icmp eq ptr %159, %160
  br i1 %161, label %162, label %166

162:                                              ; preds = %156
  %163 = load ptr, ptr %6, align 8, !tbaa !16
  %164 = load ptr, ptr %7, align 8, !tbaa !16
  %165 = getelementptr inbounds nuw %struct._lv_rb_node_t, ptr %164, i32 0, i32 1
  store ptr %163, ptr %165, align 8, !tbaa !22
  br label %170

166:                                              ; preds = %156
  %167 = load ptr, ptr %6, align 8, !tbaa !16
  %168 = load ptr, ptr %7, align 8, !tbaa !16
  %169 = getelementptr inbounds nuw %struct._lv_rb_node_t, ptr %168, i32 0, i32 2
  store ptr %167, ptr %169, align 8, !tbaa !23
  br label %170

170:                                              ; preds = %166, %162
  br label %175

171:                                              ; preds = %153
  %172 = load ptr, ptr %6, align 8, !tbaa !16
  %173 = load ptr, ptr %4, align 8, !tbaa !3
  %174 = getelementptr inbounds nuw %struct._lv_rb_t, ptr %173, i32 0, i32 0
  store ptr %172, ptr %174, align 8, !tbaa !11
  br label %175

175:                                              ; preds = %171, %170
  %176 = load i32, ptr %8, align 4, !tbaa !29
  %177 = icmp eq i32 %176, 1
  br i1 %177, label %178, label %182

178:                                              ; preds = %175
  %179 = load ptr, ptr %4, align 8, !tbaa !3
  %180 = load ptr, ptr %6, align 8, !tbaa !16
  %181 = load ptr, ptr %7, align 8, !tbaa !16
  call void @rb_delete_color(ptr noundef %179, ptr noundef %180, ptr noundef %181)
  br label %182

182:                                              ; preds = %178, %175
  call void @llvm.lifetime.start.p0(i64 8, ptr %12) #4
  %183 = load ptr, ptr %5, align 8, !tbaa !16
  %184 = getelementptr inbounds nuw %struct._lv_rb_node_t, ptr %183, i32 0, i32 4
  %185 = load ptr, ptr %184, align 8, !tbaa !21
  store ptr %185, ptr %12, align 8, !tbaa !8
  %186 = load ptr, ptr %5, align 8, !tbaa !16
  call void @lv_free(ptr noundef %186)
  %187 = load ptr, ptr %12, align 8, !tbaa !8
  store ptr %187, ptr %3, align 8
  store i32 1, ptr %11, align 4
  call void @llvm.lifetime.end.p0(i64 8, ptr %12) #4
  br label %188

188:                                              ; preds = %182, %120
  call void @llvm.lifetime.end.p0(i64 4, ptr %8) #4
  call void @llvm.lifetime.end.p0(i64 8, ptr %7) #4
  call void @llvm.lifetime.end.p0(i64 8, ptr %6) #4
  %189 = load ptr, ptr %3, align 8
  ret ptr %189
}