; Function Attrs: nounwind uwtable
define ptr @lv_rb_remove_node(ptr noundef captures(address_is_null) %0, ptr noundef %1) local_unnamed_addr #0 {
  %3 = getelementptr inbounds nuw i8, ptr %1, i64 8
  %4 = load ptr, ptr %3, align 8, !tbaa !21
  %.not = icmp eq ptr %4, null
  %5 = getelementptr inbounds nuw i8, ptr %1, i64 16
  %6 = load ptr, ptr %5, align 8, !tbaa !22
  %.not7683 = icmp eq ptr %6, null
  br i1 %.not, label %.thread82, label %7

7:                                                ; preds = %2
  br i1 %.not7683, label %.thread, label %.preheader

.preheader:                                       ; preds = %7, %.preheader
  %.0.i = phi ptr [ %9, %.preheader ], [ %6, %7 ]
  %8 = getelementptr inbounds nuw i8, ptr %.0.i, i64 8
  %9 = load ptr, ptr %8, align 8, !tbaa !21
  %.not.i = icmp eq ptr %9, null
  br i1 %.not.i, label %lv_rb_minimum_from.exit, label %.preheader, !llvm.loop !24

lv_rb_minimum_from.exit:                          ; preds = %.preheader
  %10 = getelementptr inbounds nuw i8, ptr %.0.i, i64 8
  %11 = load ptr, ptr %1, align 8, !tbaa !18
  %.not79 = icmp eq ptr %11, null
  br i1 %.not79, label %19, label %12

12:                                               ; preds = %lv_rb_minimum_from.exit
  %13 = getelementptr inbounds nuw i8, ptr %11, i64 8
  %14 = load ptr, ptr %13, align 8, !tbaa !21
  %15 = icmp eq ptr %14, %1
  br i1 %15, label %16, label %17

16:                                               ; preds = %12
  store ptr %.0.i, ptr %13, align 8, !tbaa !21
  br label %20

17:                                               ; preds = %12
  %18 = getelementptr inbounds nuw i8, ptr %11, i64 16
  store ptr %.0.i, ptr %18, align 8, !tbaa !22
  br label %20

19:                                               ; preds = %lv_rb_minimum_from.exit
  store ptr %.0.i, ptr %0, align 8, !tbaa !3
  br label %20

20:                                               ; preds = %16, %17, %19
  %21 = getelementptr inbounds nuw i8, ptr %.0.i, i64 16
  %22 = load ptr, ptr %21, align 8, !tbaa !22
  %23 = load ptr, ptr %.0.i, align 8, !tbaa !18
  %24 = getelementptr inbounds nuw i8, ptr %.0.i, i64 24
  %25 = load i32, ptr %24, align 8, !tbaa !19
  %26 = icmp eq ptr %23, %1
  br i1 %26, label %32, label %27

27:                                               ; preds = %20
  %.not80 = icmp eq ptr %22, null
  br i1 %.not80, label %29, label %28

28:                                               ; preds = %27
  store ptr %23, ptr %22, align 8, !tbaa !18
  br label %29

29:                                               ; preds = %28, %27
  %30 = getelementptr inbounds nuw i8, ptr %23, i64 8
  store ptr %22, ptr %30, align 8, !tbaa !21
  %31 = load ptr, ptr %5, align 8, !tbaa !22
  store ptr %31, ptr %21, align 8, !tbaa !22
  store ptr %.0.i, ptr %31, align 8, !tbaa !18
  %.pre = load ptr, ptr %1, align 8, !tbaa !18
  br label %32

32:                                               ; preds = %20, %29
  %33 = phi ptr [ %.pre, %29 ], [ %11, %20 ]
  %.067 = phi ptr [ %23, %29 ], [ %.0.i, %20 ]
  store ptr %33, ptr %.0.i, align 8, !tbaa !18
  %34 = getelementptr inbounds nuw i8, ptr %1, i64 24
  %35 = load i32, ptr %34, align 8, !tbaa !19
  store i32 %35, ptr %24, align 8, !tbaa !19
  %36 = load ptr, ptr %3, align 8, !tbaa !21
  store ptr %36, ptr %10, align 8, !tbaa !21
  store ptr %.0.i, ptr %36, align 8, !tbaa !18
  %37 = icmp eq i32 %25, 1
  br i1 %37, label %38, label %60

38:                                               ; preds = %32
  tail call fastcc void @rb_delete_color(ptr noundef %0, ptr noundef %22, ptr noundef nonnull %.067)
  br label %60

.thread82:                                        ; preds = %2
  br i1 %.not7683, label %.thread84, label %.thread

.thread84:                                        ; preds = %.thread82
  %39 = load ptr, ptr %1, align 8, !tbaa !18
  %40 = getelementptr inbounds nuw i8, ptr %1, i64 24
  %41 = load i32, ptr %40, align 8, !tbaa !19
  br label %45

.thread:                                          ; preds = %7, %.thread82
  %42 = phi ptr [ %6, %.thread82 ], [ %4, %7 ]
  %43 = load ptr, ptr %1, align 8, !tbaa !18
  %.in = getelementptr inbounds nuw i8, ptr %1, i64 24
  %44 = load i32, ptr %.in, align 8, !tbaa !19
  store ptr %43, ptr %42, align 8, !tbaa !18
  br label %45

45:                                               ; preds = %.thread84, %.thread
  %46 = phi i32 [ %44, %.thread ], [ %41, %.thread84 ]
  %47 = phi ptr [ %43, %.thread ], [ %39, %.thread84 ]
  %48 = phi ptr [ %42, %.thread ], [ null, %.thread84 ]
  %.not78 = icmp eq ptr %47, null
  br i1 %.not78, label %56, label %49

49:                                               ; preds = %45
  %50 = getelementptr inbounds nuw i8, ptr %47, i64 8
  %51 = load ptr, ptr %50, align 8, !tbaa !21
  %52 = icmp eq ptr %51, %1
  br i1 %52, label %53, label %54

53:                                               ; preds = %49
  store ptr %48, ptr %50, align 8, !tbaa !21
  br label %57

54:                                               ; preds = %49
  %55 = getelementptr inbounds nuw i8, ptr %47, i64 16
  store ptr %48, ptr %55, align 8, !tbaa !22
  br label %57

56:                                               ; preds = %45
  store ptr %48, ptr %0, align 8, !tbaa !3
  br label %57

57:                                               ; preds = %53, %54, %56
  %58 = icmp eq i32 %46, 1
  br i1 %58, label %59, label %60

59:                                               ; preds = %57
  tail call fastcc void @rb_delete_color(ptr noundef %0, ptr noundef %48, ptr noundef %47)
  br label %60

60:                                               ; preds = %57, %59, %32, %38
  %61 = getelementptr inbounds nuw i8, ptr %1, i64 32
  %62 = load ptr, ptr %61, align 8, !tbaa !13
  tail call void @lv_free(ptr noundef nonnull %1) #5
  ret ptr %62
}